target datalayout = "e-m:e-p270:32:32-p271:32:32-p272:64:64-i64:64-i128:128-f80:128-n8:16:32:64-S128"
target triple = "x86_64-pc-linux-gnu"

; Function Attrs: mustprogress uwtable
define noundef i32 @_ZN3zmq19tune_tcp_keepalivesEiiiii(i32 noundef %0, i32 noundef %1, i32 noundef %2, i32 noundef %3, i32 noundef %4) #0 {
  %6 = alloca i32, align 4
  %7 = alloca i32, align 4
  %8 = alloca i32, align 4
  %9 = alloca i32, align 4
  %10 = alloca i32, align 4
  %11 = alloca i32, align 4
  %12 = alloca i32, align 4
  %13 = alloca i32, align 4
  %14 = alloca i32, align 4
  %15 = alloca i32, align 4
  %16 = alloca i32, align 4
  store i32 %0, ptr %7, align 4, !tbaa !3
  store i32 %1, ptr %8, align 4, !tbaa !3
  store i32 %2, ptr %9, align 4, !tbaa !3
  store i32 %3, ptr %10, align 4, !tbaa !3
  store i32 %4, ptr %11, align 4, !tbaa !3
  %17 = load i32, ptr %8, align 4, !tbaa !3
  %18 = icmp ne i32 %17, -1
  br i1 %18, label %19, label %80

19:                                               ; preds = %5
  call void @llvm.lifetime.start.p0(i64 4, ptr %12) #7
  %20 = load i32, ptr %7, align 4, !tbaa !3
  %21 = call i32 @setsockopt(i32 noundef %20, i32 noundef 1, i32 noundef 9, ptr noundef %8, i32 noundef 4) #7
  store i32 %21, ptr %12, align 4, !tbaa !3
  %22 = load i32, ptr %7, align 4, !tbaa !3
  %23 = load i32, ptr %12, align 4, !tbaa !3
  call void @_ZN3zmq29assert_success_or_recoverableEii(i32 noundef %22, i32 noundef %23)
  %24 = load i32, ptr %12, align 4, !tbaa !3
  %25 = icmp ne i32 %24, 0
  br i1 %25, label %26, label %28

26:                                               ; preds = %19
  %27 = load i32, ptr %12, align 4, !tbaa !3
  store i32 %27, ptr %6, align 4
  store i32 1, ptr %13, align 4
  br label %77

28:                                               ; preds = %19
  %29 = load i32, ptr %9, align 4, !tbaa !3
  %30 = icmp ne i32 %29, -1
  br i1 %30, label %31, label %44

31:                                               ; preds = %28
  call void @llvm.lifetime.start.p0(i64 4, ptr %14) #7
  %32 = load i32, ptr %7, align 4, !tbaa !3
  %33 = call i32 @setsockopt(i32 noundef %32, i32 noundef 6, i32 noundef 6, ptr noundef %9, i32 noundef 4) #7
  store i32 %33, ptr %14, align 4, !tbaa !3
  %34 = load i32, ptr %7, align 4, !tbaa !3
  %35 = load i32, ptr %14, align 4, !tbaa !3
  call void @_ZN3zmq29assert_success_or_recoverableEii(i32 noundef %34, i32 noundef %35)
  %36 = load i32, ptr %14, align 4, !tbaa !3
  %37 = icmp ne i32 %36, 0
  br i1 %37, label %38, label %40

38:                                               ; preds = %31
  %39 = load i32, ptr %14, align 4, !tbaa !3
  store i32 %39, ptr %6, align 4
  store i32 1, ptr %13, align 4
  br label %41

40:                                               ; preds = %31
  store i32 0, ptr %13, align 4
  br label %41

41:                                               ; preds = %40, %38
  call void @llvm.lifetime.end.p0(i64 4, ptr %14) #7
  %42 = load i32, ptr %13, align 4
  switch i32 %42, label %77 [
    i32 0, label %43
  ]

43:                                               ; preds = %41
  br label %44

44:                                               ; preds = %43, %28
  %45 = load i32, ptr %10, align 4, !tbaa !3
  %46 = icmp ne i32 %45, -1
  br i1 %46, label %47, label %60

47:                                               ; preds = %44
  call void @llvm.lifetime.start.p0(i64 4, ptr %15) #7
  %48 = load i32, ptr %7, align 4, !tbaa !3
  %49 = call i32 @setsockopt(i32 noundef %48, i32 noundef 6, i32 noundef 4, ptr noundef %10, i32 noundef 4) #7
  store i32 %49, ptr %15, align 4, !tbaa !3
  %50 = load i32, ptr %7, align 4, !tbaa !3
  %51 = load i32, ptr %15, align 4, !tbaa !3
  call void @_ZN3zmq29assert_success_or_recoverableEii(i32 noundef %50, i32 noundef %51)
  %52 = load i32, ptr %15, align 4, !tbaa !3
  %53 = icmp ne i32 %52, 0
  br i1 %53, label %54, label %56

54:                                               ; preds = %47
  %55 = load i32, ptr %15, align 4, !tbaa !3
  store i32 %55, ptr %6, align 4
  store i32 1, ptr %13, align 4
  br label %57

56:                                               ; preds = %47
  store i32 0, ptr %13, align 4
  br label %57

57:                                               ; preds = %56, %54
  call void @llvm.lifetime.end.p0(i64 4, ptr %15) #7
  %58 = load i32, ptr %13, align 4
  switch i32 %58, label %77 [
    i32 0, label %59
  ]

59:                                               ; preds = %57
  br label %60

60:                                               ; preds = %59, %44
  %61 = load i32, ptr %11, align 4, !tbaa !3
  %62 = icmp ne i32 %61, -1
  br i1 %62, label %63, label %76

63:                                               ; preds = %60
  call void @llvm.lifetime.start.p0(i64 4, ptr %16) #7
  %64 = load i32, ptr %7, align 4, !tbaa !3
  %65 = call i32 @setsockopt(i32 noundef %64, i32 noundef 6, i32 noundef 5, ptr noundef %11, i32 noundef 4) #7
  store i32 %65, ptr %16, align 4, !tbaa !3
  %66 = load i32, ptr %7, align 4, !tbaa !3
  %67 = load i32, ptr %16, align 4, !tbaa !3
  call void @_ZN3zmq29assert_success_or_recoverableEii(i32 noundef %66, i32 noundef %67)
  %68 = load i32, ptr %16, align 4, !tbaa !3
  %69 = icmp ne i32 %68, 0
  br i1 %69, label %70, label %72

70:                                               ; preds = %63
  %71 = load i32, ptr %16, align 4, !tbaa !3
  store i32 %71, ptr %6, align 4
  store i32 1, ptr %13, align 4
  br label %73

72:                                               ; preds = %63
  store i32 0, ptr %13, align 4
  br label %73

73:                                               ; preds = %72, %70
  call void @llvm.lifetime.end.p0(i64 4, ptr %16) #7
  %74 = load i32, ptr %13, align 4
  switch i32 %74, label %77 [
    i32 0, label %75
  ]

75:                                               ; preds = %73
  br label %76

76:                                               ; preds = %75, %60
  store i32 0, ptr %13, align 4
  br label %77

77:                                               ; preds = %76, %73, %57, %41, %26
  call void @llvm.lifetime.end.p0(i64 4, ptr %12) #7
  %78 = load i32, ptr %13, align 4
  switch i32 %78, label %83 [
    i32 0, label %79
    i32 1, label %81
  ]

79:                                               ; preds = %77
  br label %80

80:                                               ; preds = %79, %5
  store i32 0, ptr %6, align 4
  br label %81

81:                                               ; preds = %80, %77
  %82 = load i32, ptr %6, align 4
  ret i32 %82

83:                                               ; preds = %77
  unreachable
}