; Function Attrs: mustprogress uwtable
define noundef i32 @_ZN3zmq19tune_tcp_keepalivesEiiiii(i32 noundef %0, i32 noundef %1, i32 noundef %2, i32 noundef %3, i32 noundef %4) local_unnamed_addr #0 {
  %6 = alloca i32, align 4
  %7 = alloca i32, align 4
  %8 = alloca i32, align 4
  %9 = alloca i32, align 4
  store i32 %1, ptr %6, align 4, !tbaa !3
  store i32 %2, ptr %7, align 4, !tbaa !3
  store i32 %3, ptr %8, align 4, !tbaa !3
  store i32 %4, ptr %9, align 4, !tbaa !3
  %.not = icmp eq i32 %1, -1
  br i1 %.not, label %select.unfold, label %10

10:                                               ; preds = %5
  %11 = call i32 @setsockopt(i32 noundef %0, i32 noundef 1, i32 noundef 9, ptr noundef nonnull %6, i32 noundef 4) #7
  call void @_ZN3zmq29assert_success_or_recoverableEii(i32 noundef %0, i32 noundef %11)
  %.not34 = icmp eq i32 %11, 0
  br i1 %.not34, label %12, label %select.unfold

12:                                               ; preds = %10
  %.not35 = icmp eq i32 %2, -1
  br i1 %.not35, label %15, label %13

13:                                               ; preds = %12
  %14 = call i32 @setsockopt(i32 noundef %0, i32 noundef 6, i32 noundef 6, ptr noundef nonnull %7, i32 noundef 4) #7
  call void @_ZN3zmq29assert_success_or_recoverableEii(i32 noundef %0, i32 noundef %14)
  %.not36 = icmp eq i32 %14, 0
  br i1 %.not36, label %15, label %select.unfold

15:                                               ; preds = %13, %12
  %.not37 = icmp eq i32 %3, -1
  br i1 %.not37, label %18, label %16

16:                                               ; preds = %15
  %17 = call i32 @setsockopt(i32 noundef %0, i32 noundef 6, i32 noundef 4, ptr noundef nonnull %8, i32 noundef 4) #7
  call void @_ZN3zmq29assert_success_or_recoverableEii(i32 noundef %0, i32 noundef %17)
  %.not38 = icmp eq i32 %17, 0
  br i1 %.not38, label %18, label %select.unfold

18:                                               ; preds = %16, %15
  %.not39 = icmp eq i32 %4, -1
  br i1 %.not39, label %select.unfold, label %19

19:                                               ; preds = %18
  %20 = call i32 @setsockopt(i32 noundef %0, i32 noundef 6, i32 noundef 5, ptr noundef nonnull %9, i32 noundef 4) #7
  call void @_ZN3zmq29assert_success_or_recoverableEii(i32 noundef %0, i32 noundef %20)
  br label %select.unfold

select.unfold:                                    ; preds = %19, %10, %13, %16, %5, %18
  %.7 = phi i32 [ 0, %18 ], [ 0, %5 ], [ %11, %10 ], [ %14, %13 ], [ %17, %16 ], [ %20, %19 ]
  ret i32 %.7
}